target datalayout = "e-m:e-p270:32:32-p271:32:32-p272:64:64-i64:64-i128:128-f80:128-n8:16:32:64-S128"
target triple = "x86_64-pc-linux-gnu"

%struct.AVChannelLayout = type { i32, i32, %union.anon, ptr }
%union.anon = type { i64 }
%struct.AVFormatContext = type { ptr, ptr, ptr, ptr, ptr, i32, i32, ptr, i32, ptr, i32, ptr, ptr, i64, i64, i64, i32, i32, i32, i64, i64, ptr, i32, i32, ptr, i32, i32, i32, i32, ptr, i64, i32, i32, %struct.AVIOInterruptCB, i32, i32, i32, i32, i64, i32, i32, i32, i32, i32, i32, i32, i32, i32, i32, i32, i32, i64, i32, i32, i32, i32, i32, ptr, ptr, ptr, ptr, i32, ptr, ptr, ptr, ptr, i32, ptr, ptr, i64, ptr, ptr, ptr, i64 }
%struct.AVIOInterruptCB = type { ptr, ptr }
%struct.CinDemuxContext = type { i32, i32, %struct.CinFileHeader, i64, i64, %struct.CinFrameHeader, i32 }
%struct.CinFileHeader = type { i32, i32, i32, i32, i32, i32, i32 }
%struct.CinFrameHeader = type { i32, i32, i32, i32, i32 }
%struct.AVStream = type { ptr, i32, i32, ptr, ptr, %struct.AVRational, i64, i64, i64, i32, i32, %struct.AVRational, ptr, %struct.AVRational, %struct.AVPacket, i32, %struct.AVRational, i32 }
%struct.AVPacket = type { ptr, i64, i64, ptr, i32, i32, i32, ptr, i32, i64, i64, ptr, ptr, %struct.AVRational }
%struct.AVRational = type { i32, i32 }
%struct.AVCodecParameters = type { i32, i32, i32, ptr, i32, ptr, i32, i32, i64, i32, i32, i32, i32, i32, i32, %struct.AVRational, %struct.AVRational, i32, i32, i32, i32, i32, i32, i32, %struct.AVChannelLayout, i32, i32, i32, i32, i32, i32 }

; Function Attrs: nounwind uwtable
define internal i32 @cin_read_file_header(ptr noundef %0, ptr noundef %1) #0 {
  %3 = alloca i32, align 4
  %4 = alloca ptr, align 8
  %5 = alloca ptr, align 8
  %6 = alloca ptr, align 8
  %7 = alloca i32, align 4
  store ptr %0, ptr %4, align 8, !tbaa !31
  store ptr %1, ptr %5, align 8, !tbaa !36
  call void @llvm.lifetime.start.p0(i64 8, ptr %6) #4
  %8 = load ptr, ptr %4, align 8, !tbaa !31
  %9 = getelementptr inbounds nuw %struct.CinDemuxContext, ptr %8, i32 0, i32 2
  store ptr %9, ptr %6, align 8, !tbaa !33
  %10 = load ptr, ptr %5, align 8, !tbaa !36
  %11 = call i32 @avio_rl32(ptr noundef %10)
  %12 = icmp ne i32 %11, 1437204480
  br i1 %12, label %13, label %14

13:                                               ; preds = %2
  store i32 -1094995529, ptr %3, align 4
  store i32 1, ptr %7, align 4
  br label %59

14:                                               ; preds = %2
  %15 = load ptr, ptr %5, align 8, !tbaa !36
  %16 = call i32 @avio_rl32(ptr noundef %15)
  %17 = load ptr, ptr %6, align 8, !tbaa !33
  %18 = getelementptr inbounds nuw %struct.CinFileHeader, ptr %17, i32 0, i32 0
  store i32 %16, ptr %18, align 4, !tbaa !87
  %19 = load ptr, ptr %5, align 8, !tbaa !36
  %20 = call i32 @avio_rl16(ptr noundef %19)
  %21 = load ptr, ptr %6, align 8, !tbaa !33
  %22 = getelementptr inbounds nuw %struct.CinFileHeader, ptr %21, i32 0, i32 1
  store i32 %20, ptr %22, align 4, !tbaa !60
  %23 = load ptr, ptr %5, align 8, !tbaa !36
  %24 = call i32 @avio_rl16(ptr noundef %23)
  %25 = load ptr, ptr %6, align 8, !tbaa !33
  %26 = getelementptr inbounds nuw %struct.CinFileHeader, ptr %25, i32 0, i32 2
  store i32 %24, ptr %26, align 4, !tbaa !62
  %27 = load ptr, ptr %5, align 8, !tbaa !36
  %28 = call i32 @avio_rl32(ptr noundef %27)
  %29 = load ptr, ptr %6, align 8, !tbaa !33
  %30 = getelementptr inbounds nuw %struct.CinFileHeader, ptr %29, i32 0, i32 3
  store i32 %28, ptr %30, align 4, !tbaa !88
  %31 = load ptr, ptr %5, align 8, !tbaa !36
  %32 = call i32 @avio_r8(ptr noundef %31)
  %33 = load ptr, ptr %6, align 8, !tbaa !33
  %34 = getelementptr inbounds nuw %struct.CinFileHeader, ptr %33, i32 0, i32 4
  store i32 %32, ptr %34, align 4, !tbaa !89
  %35 = load ptr, ptr %5, align 8, !tbaa !36
  %36 = call i32 @avio_r8(ptr noundef %35)
  %37 = load ptr, ptr %6, align 8, !tbaa !33
  %38 = getelementptr inbounds nuw %struct.CinFileHeader, ptr %37, i32 0, i32 5
  store i32 %36, ptr %38, align 4, !tbaa !90
  %39 = load ptr, ptr %5, align 8, !tbaa !36
  %40 = call i32 @avio_rl16(ptr noundef %39)
  %41 = load ptr, ptr %6, align 8, !tbaa !33
  %42 = getelementptr inbounds nuw %struct.CinFileHeader, ptr %41, i32 0, i32 6
  store i32 %40, ptr %42, align 4, !tbaa !91
  %43 = load ptr, ptr %6, align 8, !tbaa !33
  %44 = getelementptr inbounds nuw %struct.CinFileHeader, ptr %43, i32 0, i32 3
  %45 = load i32, ptr %44, align 4, !tbaa !88
  %46 = icmp ne i32 %45, 22050
  br i1 %46, label %57, label %47

47:                                               ; preds = %14
  %48 = load ptr, ptr %6, align 8, !tbaa !33
  %49 = getelementptr inbounds nuw %struct.CinFileHeader, ptr %48, i32 0, i32 4
  %50 = load i32, ptr %49, align 4, !tbaa !89
  %51 = icmp ne i32 %50, 16
  br i1 %51, label %57, label %52

52:                                               ; preds = %47
  %53 = load ptr, ptr %6, align 8, !tbaa !33
  %54 = getelementptr inbounds nuw %struct.CinFileHeader, ptr %53, i32 0, i32 5
  %55 = load i32, ptr %54, align 4, !tbaa !90
  %56 = icmp ne i32 %55, 0
  br i1 %56, label %57, label %58

57:                                               ; preds = %52, %47, %14
  store i32 -1094995529, ptr %3, align 4
  store i32 1, ptr %7, align 4
  br label %59

58:                                               ; preds = %52
  store i32 0, ptr %3, align 4
  store i32 1, ptr %7, align 4
  br label %59

59:                                               ; preds = %58, %57, %13
  call void @llvm.lifetime.end.p0(i64 8, ptr %6) #4
  %60 = load i32, ptr %3, align 4
  ret i32 %60
}

; Function Attrs: nounwind uwtable
define internal i32 @cin_read_header(ptr noundef %0) #0 {
  %2 = alloca i32, align 4
  %3 = alloca ptr, align 8
  %4 = alloca i32, align 4
  %5 = alloca ptr, align 8
  %6 = alloca ptr, align 8
  %7 = alloca ptr, align 8
  %8 = alloca ptr, align 8
  %9 = alloca i32, align 4
  %10 = alloca %struct.AVChannelLayout, align 8
  store ptr %0, ptr %3, align 8, !tbaa !14
  call void @llvm.lifetime.start.p0(i64 4, ptr %4) #4
  call void @llvm.lifetime.start.p0(i64 8, ptr %5) #4
  %11 = load ptr, ptr %3, align 8, !tbaa !14
  %12 = getelementptr inbounds nuw %struct.AVFormatContext, ptr %11, i32 0, i32 3
  %13 = load ptr, ptr %12, align 8, !tbaa !16
  store ptr %13, ptr %5, align 8, !tbaa !31
  call void @llvm.lifetime.start.p0(i64 8, ptr %6) #4
  %14 = load ptr, ptr %5, align 8, !tbaa !31
  %15 = getelementptr inbounds nuw %struct.CinDemuxContext, ptr %14, i32 0, i32 2
  store ptr %15, ptr %6, align 8, !tbaa !33
  call void @llvm.lifetime.start.p0(i64 8, ptr %7) #4
  %16 = load ptr, ptr %3, align 8, !tbaa !14
  %17 = getelementptr inbounds nuw %struct.AVFormatContext, ptr %16, i32 0, i32 4
  %18 = load ptr, ptr %17, align 8, !tbaa !35
  store ptr %18, ptr %7, align 8, !tbaa !36
  call void @llvm.lifetime.start.p0(i64 8, ptr %8) #4
  %19 = load ptr, ptr %5, align 8, !tbaa !31
  %20 = load ptr, ptr %7, align 8, !tbaa !36
  %21 = call i32 @cin_read_file_header(ptr noundef %19, ptr noundef %20)
  store i32 %21, ptr %4, align 4, !tbaa !37
  %22 = load i32, ptr %4, align 4, !tbaa !37
  %23 = icmp ne i32 %22, 0
  br i1 %23, label %24, label %26

24:                                               ; preds = %1
  %25 = load i32, ptr %4, align 4, !tbaa !37
  store i32 %25, ptr %2, align 4
  store i32 1, ptr %9, align 4
  br label %134

26:                                               ; preds = %1
  %27 = load ptr, ptr %5, align 8, !tbaa !31
  %28 = getelementptr inbounds nuw %struct.CinDemuxContext, ptr %27, i32 0, i32 4
  store i64 0, ptr %28, align 8, !tbaa !38
  %29 = load ptr, ptr %5, align 8, !tbaa !31
  %30 = getelementptr inbounds nuw %struct.CinDemuxContext, ptr %29, i32 0, i32 3
  store i64 0, ptr %30, align 8, !tbaa !42
  %31 = load ptr, ptr %5, align 8, !tbaa !31
  %32 = getelementptr inbounds nuw %struct.CinDemuxContext, ptr %31, i32 0, i32 6
  store i32 0, ptr %32, align 4, !tbaa !43
  %33 = load ptr, ptr %3, align 8, !tbaa !14
  %34 = call ptr @avformat_new_stream(ptr noundef %33, ptr noundef null)
  store ptr %34, ptr %8, align 8, !tbaa !44
  %35 = load ptr, ptr %8, align 8, !tbaa !44
  %36 = icmp ne ptr %35, null
  br i1 %36, label %38, label %37

37:                                               ; preds = %26
  store i32 -12, ptr %2, align 4
  store i32 1, ptr %9, align 4
  br label %134

38:                                               ; preds = %26
  %39 = load ptr, ptr %8, align 8, !tbaa !44
  call void @avpriv_set_pts_info(ptr noundef %39, i32 noundef 32, i32 noundef 1, i32 noundef 12)
  %40 = load ptr, ptr %8, align 8, !tbaa !44
  %41 = getelementptr inbounds nuw %struct.AVStream, ptr %40, i32 0, i32 1
  %42 = load i32, ptr %41, align 8, !tbaa !46
  %43 = load ptr, ptr %5, align 8, !tbaa !31
  %44 = getelementptr inbounds nuw %struct.CinDemuxContext, ptr %43, i32 0, i32 1
  store i32 %42, ptr %44, align 4, !tbaa !53
  %45 = load ptr, ptr %8, align 8, !tbaa !44
  %46 = getelementptr inbounds nuw %struct.AVStream, ptr %45, i32 0, i32 3
  %47 = load ptr, ptr %46, align 8, !tbaa !54
  %48 = getelementptr inbounds nuw %struct.AVCodecParameters, ptr %47, i32 0, i32 0
  store i32 0, ptr %48, align 8, !tbaa !55
  %49 = load ptr, ptr %8, align 8, !tbaa !44
  %50 = getelementptr inbounds nuw %struct.AVStream, ptr %49, i32 0, i32 3
  %51 = load ptr, ptr %50, align 8, !tbaa !54
  %52 = getelementptr inbounds nuw %struct.AVCodecParameters, ptr %51, i32 0, i32 1
  store i32 94, ptr %52, align 4, !tbaa !58
  %53 = load ptr, ptr %8, align 8, !tbaa !44
  %54 = getelementptr inbounds nuw %struct.AVStream, ptr %53, i32 0, i32 3
  %55 = load ptr, ptr %54, align 8, !tbaa !54
  %56 = getelementptr inbounds nuw %struct.AVCodecParameters, ptr %55, i32 0, i32 2
  store i32 0, ptr %56, align 8, !tbaa !59
  %57 = load ptr, ptr %6, align 8, !tbaa !33
  %58 = getelementptr inbounds nuw %struct.CinFileHeader, ptr %57, i32 0, i32 1
  %59 = load i32, ptr %58, align 4, !tbaa !60
  %60 = load ptr, ptr %8, align 8, !tbaa !44
  %61 = getelementptr inbounds nuw %struct.AVStream, ptr %60, i32 0, i32 3
  %62 = load ptr, ptr %61, align 8, !tbaa !54
  %63 = getelementptr inbounds nuw %struct.AVCodecParameters, ptr %62, i32 0, i32 13
  store i32 %59, ptr %63, align 8, !tbaa !61
  %64 = load ptr, ptr %6, align 8, !tbaa !33
  %65 = getelementptr inbounds nuw %struct.CinFileHeader, ptr %64, i32 0, i32 2
  %66 = load i32, ptr %65, align 4, !tbaa !62
  %67 = load ptr, ptr %8, align 8, !tbaa !44
  %68 = getelementptr inbounds nuw %struct.AVStream, ptr %67, i32 0, i32 3
  %69 = load ptr, ptr %68, align 8, !tbaa !54
  %70 = getelementptr inbounds nuw %struct.AVCodecParameters, ptr %69, i32 0, i32 14
  store i32 %66, ptr %70, align 4, !tbaa !63
  %71 = load ptr, ptr %3, align 8, !tbaa !14
  %72 = call ptr @avformat_new_stream(ptr noundef %71, ptr noundef null)
  store ptr %72, ptr %8, align 8, !tbaa !44
  %73 = load ptr, ptr %8, align 8, !tbaa !44
  %74 = icmp ne ptr %73, null
  br i1 %74, label %76, label %75

75:                                               ; preds = %38
  store i32 -12, ptr %2, align 4
  store i32 1, ptr %9, align 4
  br label %134

76:                                               ; preds = %38
  %77 = load ptr, ptr %8, align 8, !tbaa !44
  call void @avpriv_set_pts_info(ptr noundef %77, i32 noundef 32, i32 noundef 1, i32 noundef 22050)
  %78 = load ptr, ptr %8, align 8, !tbaa !44
  %79 = getelementptr inbounds nuw %struct.AVStream, ptr %78, i32 0, i32 1
  %80 = load i32, ptr %79, align 8, !tbaa !46
  %81 = load ptr, ptr %5, align 8, !tbaa !31
  %82 = getelementptr inbounds nuw %struct.CinDemuxContext, ptr %81, i32 0, i32 0
  store i32 %80, ptr %82, align 8, !tbaa !64
  %83 = load ptr, ptr %8, align 8, !tbaa !44
  %84 = getelementptr inbounds nuw %struct.AVStream, ptr %83, i32 0, i32 3
  %85 = load ptr, ptr %84, align 8, !tbaa !54
  %86 = getelementptr inbounds nuw %struct.AVCodecParameters, ptr %85, i32 0, i32 0
  store i32 1, ptr %86, align 8, !tbaa !55
  %87 = load ptr, ptr %8, align 8, !tbaa !44
  %88 = getelementptr inbounds nuw %struct.AVStream, ptr %87, i32 0, i32 3
  %89 = load ptr, ptr %88, align 8, !tbaa !54
  %90 = getelementptr inbounds nuw %struct.AVCodecParameters, ptr %89, i32 0, i32 1
  store i32 86042, ptr %90, align 4, !tbaa !58
  %91 = load ptr, ptr %8, align 8, !tbaa !44
  %92 = getelementptr inbounds nuw %struct.AVStream, ptr %91, i32 0, i32 3
  %93 = load ptr, ptr %92, align 8, !tbaa !54
  %94 = getelementptr inbounds nuw %struct.AVCodecParameters, ptr %93, i32 0, i32 2
  store i32 0, ptr %94, align 8, !tbaa !59
  %95 = load ptr, ptr %8, align 8, !tbaa !44
  %96 = getelementptr inbounds nuw %struct.AVStream, ptr %95, i32 0, i32 3
  %97 = load ptr, ptr %96, align 8, !tbaa !54
  %98 = getelementptr inbounds nuw %struct.AVCodecParameters, ptr %97, i32 0, i32 24
  %99 = getelementptr inbounds nuw %struct.AVChannelLayout, ptr %10, i32 0, i32 0
  store i32 1, ptr %99, align 8, !tbaa !65
  %100 = getelementptr inbounds nuw %struct.AVChannelLayout, ptr %10, i32 0, i32 1
  store i32 1, ptr %100, align 4, !tbaa !66
  %101 = getelementptr inbounds nuw %struct.AVChannelLayout, ptr %10, i32 0, i32 2
  store i64 4, ptr %101, align 8, !tbaa !13
  %102 = getelementptr inbounds nuw %struct.AVChannelLayout, ptr %10, i32 0, i32 3
  store ptr null, ptr %102, align 8, !tbaa !67
  call void @llvm.memcpy.p0.p0.i64(ptr align 8 %98, ptr align 8 %10, i64 24, i1 false), !tbaa.struct !68
  %103 = load ptr, ptr %8, align 8, !tbaa !44
  %104 = getelementptr inbounds nuw %struct.AVStream, ptr %103, i32 0, i32 3
  %105 = load ptr, ptr %104, align 8, !tbaa !54
  %106 = getelementptr inbounds nuw %struct.AVCodecParameters, ptr %105, i32 0, i32 25
  store i32 22050, ptr %106, align 8, !tbaa !70
  %107 = load ptr, ptr %8, align 8, !tbaa !44
  %108 = getelementptr inbounds nuw %struct.AVStream, ptr %107, i32 0, i32 3
  %109 = load ptr, ptr %108, align 8, !tbaa !54
  %110 = getelementptr inbounds nuw %struct.AVCodecParameters, ptr %109, i32 0, i32 9
  store i32 8, ptr %110, align 8, !tbaa !71
  %111 = load ptr, ptr %8, align 8, !tbaa !44
  %112 = getelementptr inbounds nuw %struct.AVStream, ptr %111, i32 0, i32 3
  %113 = load ptr, ptr %112, align 8, !tbaa !54
  %114 = getelementptr inbounds nuw %struct.AVCodecParameters, ptr %113, i32 0, i32 25
  %115 = load i32, ptr %114, align 8, !tbaa !70
  %116 = load ptr, ptr %8, align 8, !tbaa !44
  %117 = getelementptr inbounds nuw %struct.AVStream, ptr %116, i32 0, i32 3
  %118 = load ptr, ptr %117, align 8, !tbaa !54
  %119 = getelementptr inbounds nuw %struct.AVCodecParameters, ptr %118, i32 0, i32 9
  %120 = load i32, ptr %119, align 8, !tbaa !71
  %121 = mul nsw i32 %115, %120
  %122 = load ptr, ptr %8, align 8, !tbaa !44
  %123 = getelementptr inbounds nuw %struct.AVStream, ptr %122, i32 0, i32 3
  %124 = load ptr, ptr %123, align 8, !tbaa !54
  %125 = getelementptr inbounds nuw %struct.AVCodecParameters, ptr %124, i32 0, i32 24
  %126 = getelementptr inbounds nuw %struct.AVChannelLayout, ptr %125, i32 0, i32 1
  %127 = load i32, ptr %126, align 4, !tbaa !72
  %128 = mul nsw i32 %121, %127
  %129 = sext i32 %128 to i64
  %130 = load ptr, ptr %8, align 8, !tbaa !44
  %131 = getelementptr inbounds nuw %struct.AVStream, ptr %130, i32 0, i32 3
  %132 = load ptr, ptr %131, align 8, !tbaa !54
  %133 = getelementptr inbounds nuw %struct.AVCodecParameters, ptr %132, i32 0, i32 8
  store i64 %129, ptr %133, align 8, !tbaa !73
  store i32 0, ptr %2, align 4
  store i32 1, ptr %9, align 4
  br label %134

134:                                              ; preds = %76, %75, %37, %24
  call void @llvm.lifetime.end.p0(i64 8, ptr %8) #4
  call void @llvm.lifetime.end.p0(i64 8, ptr %7) #4
  call void @llvm.lifetime.end.p0(i64 8, ptr %6) #4
  call void @llvm.lifetime.end.p0(i64 8, ptr %5) #4
  call void @llvm.lifetime.end.p0(i64 4, ptr %4) #4
  %135 = load i32, ptr %2, align 4
  ret i32 %135
}