; Function Attrs: nounwind uwtable
define internal range(i32 -1094995529, 1) i32 @cin_read_header(ptr noundef %0) #1 {
  %2 = getelementptr inbounds nuw i8, ptr %0, i64 24
  %3 = load ptr, ptr %2, align 8, !tbaa !12
  %4 = getelementptr inbounds nuw i8, ptr %0, i64 32
  %5 = load ptr, ptr %4, align 8, !tbaa !27
  %6 = tail call i32 @avio_rl32(ptr noundef %5) #4
  %.not.i = icmp eq i32 %6, 1437204480
  br i1 %.not.i, label %7, label %cin_read_file_header.exit.thread

7:                                                ; preds = %1
  %8 = getelementptr inbounds nuw i8, ptr %3, i64 8
  %9 = tail call i32 @avio_rl32(ptr noundef %5) #4
  store i32 %9, ptr %8, align 4, !tbaa !28
  %10 = tail call i32 @avio_rl16(ptr noundef %5) #4
  %11 = getelementptr inbounds nuw i8, ptr %3, i64 12
  store i32 %10, ptr %11, align 4, !tbaa !30
  %12 = tail call i32 @avio_rl16(ptr noundef %5) #4
  %13 = getelementptr inbounds nuw i8, ptr %3, i64 16
  store i32 %12, ptr %13, align 4, !tbaa !31
  %14 = tail call i32 @avio_rl32(ptr noundef %5) #4
  %15 = getelementptr inbounds nuw i8, ptr %3, i64 20
  store i32 %14, ptr %15, align 4, !tbaa !32
  %16 = tail call i32 @avio_r8(ptr noundef %5) #4
  %17 = getelementptr inbounds nuw i8, ptr %3, i64 24
  store i32 %16, ptr %17, align 4, !tbaa !33
  %18 = tail call i32 @avio_r8(ptr noundef %5) #4
  %19 = getelementptr inbounds nuw i8, ptr %3, i64 28
  store i32 %18, ptr %19, align 4, !tbaa !34
  %20 = tail call i32 @avio_rl16(ptr noundef %5) #4
  %21 = getelementptr inbounds nuw i8, ptr %3, i64 32
  store i32 %20, ptr %21, align 4, !tbaa !35
  %22 = load i32, ptr %15, align 4, !tbaa !32
  %.not19.i = icmp eq i32 %22, 22050
  br i1 %.not19.i, label %23, label %cin_read_file_header.exit.thread

23:                                               ; preds = %7
  %24 = load i32, ptr %17, align 4, !tbaa !33
  %.not20.i = icmp eq i32 %24, 16
  br i1 %.not20.i, label %25, label %cin_read_file_header.exit.thread

25:                                               ; preds = %23
  %26 = load i32, ptr %19, align 4, !tbaa !34
  %.not21.i = icmp eq i32 %26, 0
  br i1 %.not21.i, label %cin_read_file_header.exit, label %cin_read_file_header.exit.thread

cin_read_file_header.exit:                        ; preds = %25
  %27 = getelementptr inbounds nuw i8, ptr %3, i64 40
  %28 = getelementptr inbounds nuw i8, ptr %3, i64 76
  store i32 0, ptr %28, align 4, !tbaa !36
  tail call void @llvm.memset.p0.i64(ptr noundef nonnull align 8 dereferenceable(16) %27, i8 0, i64 16, i1 false)
  %29 = tail call ptr @avformat_new_stream(ptr noundef nonnull %0, ptr noundef null) #4
  %.not40 = icmp eq ptr %29, null
  br i1 %.not40, label %cin_read_file_header.exit.thread, label %30

30:                                               ; preds = %cin_read_file_header.exit
  tail call void @avpriv_set_pts_info(ptr noundef nonnull %29, i32 noundef 32, i32 noundef 1, i32 noundef 12) #4
  %31 = getelementptr inbounds nuw i8, ptr %29, i64 8
  %32 = load i32, ptr %31, align 8, !tbaa !39
  %33 = getelementptr inbounds nuw i8, ptr %3, i64 4
  store i32 %32, ptr %33, align 4, !tbaa !46
  %34 = getelementptr inbounds nuw i8, ptr %29, i64 16
  %35 = load ptr, ptr %34, align 8, !tbaa !47
  store i32 0, ptr %35, align 8, !tbaa !48
  %36 = getelementptr inbounds nuw i8, ptr %35, i64 4
  store i32 94, ptr %36, align 4, !tbaa !51
  %37 = getelementptr inbounds nuw i8, ptr %35, i64 8
  store i32 0, ptr %37, align 8, !tbaa !52
  %38 = load i32, ptr %11, align 4, !tbaa !30
  %39 = getelementptr inbounds nuw i8, ptr %35, i64 72
  store i32 %38, ptr %39, align 8, !tbaa !53
  %40 = load i32, ptr %13, align 4, !tbaa !31
  %41 = getelementptr inbounds nuw i8, ptr %35, i64 76
  store i32 %40, ptr %41, align 4, !tbaa !54
  %42 = tail call ptr @avformat_new_stream(ptr noundef nonnull %0, ptr noundef null) #4
  %.not41 = icmp eq ptr %42, null
  br i1 %.not41, label %cin_read_file_header.exit.thread, label %43

43:                                               ; preds = %30
  tail call void @avpriv_set_pts_info(ptr noundef nonnull %42, i32 noundef 32, i32 noundef 1, i32 noundef 22050) #4
  %44 = getelementptr inbounds nuw i8, ptr %42, i64 8
  %45 = load i32, ptr %44, align 8, !tbaa !39
  store i32 %45, ptr %3, align 8, !tbaa !55
  %46 = getelementptr inbounds nuw i8, ptr %42, i64 16
  %47 = load ptr, ptr %46, align 8, !tbaa !47
  store i32 1, ptr %47, align 8, !tbaa !48
  %48 = getelementptr inbounds nuw i8, ptr %47, i64 4
  store i32 86042, ptr %48, align 4, !tbaa !51
  %49 = getelementptr inbounds nuw i8, ptr %47, i64 8
  store i32 0, ptr %49, align 8, !tbaa !52
  %50 = getelementptr inbounds nuw i8, ptr %47, i64 128
  store i32 1, ptr %50, align 8, !tbaa !56
  %.sroa.2.0..sroa_idx = getelementptr inbounds nuw i8, ptr %47, i64 132
  store i32 1, ptr %.sroa.2.0..sroa_idx, align 4, !tbaa !56
  %.sroa.3.0..sroa_idx = getelementptr inbounds nuw i8, ptr %47, i64 136
  store i64 4, ptr %.sroa.3.0..sroa_idx, align 8, !tbaa !11
  %.sroa.4.0..sroa_idx = getelementptr inbounds nuw i8, ptr %47, i64 144
  store ptr null, ptr %.sroa.4.0..sroa_idx, align 8, !tbaa !57
  %51 = load ptr, ptr %46, align 8, !tbaa !47
  %52 = getelementptr inbounds nuw i8, ptr %51, i64 152
  store i32 22050, ptr %52, align 8, !tbaa !58
  %53 = getelementptr inbounds nuw i8, ptr %51, i64 56
  store i32 8, ptr %53, align 8, !tbaa !59
  %54 = getelementptr inbounds nuw i8, ptr %51, i64 132
  %55 = load i32, ptr %54, align 4, !tbaa !60
  %56 = mul nsw i32 %55, 176400
  %57 = sext i32 %56 to i64
  %58 = getelementptr inbounds nuw i8, ptr %51, i64 48
  store i64 %57, ptr %58, align 8, !tbaa !61
  br label %cin_read_file_header.exit.thread

cin_read_file_header.exit.thread:                 ; preds = %25, %7, %23, %1, %30, %cin_read_file_header.exit, %43
  %.0 = phi i32 [ 0, %43 ], [ -12, %cin_read_file_header.exit ], [ -12, %30 ], [ -1094995529, %1 ], [ -1094995529, %23 ], [ -1094995529, %7 ], [ -1094995529, %25 ]
  ret i32 %.0
}